target datalayout = "e-m:e-p270:32:32-p271:32:32-p272:64:64-i64:64-i128:128-f80:128-n8:16:32:64-S128"
target triple = "x86_64-pc-linux-gnu"

%struct.AVIOInterruptCB = type { ptr, ptr }
%struct.Muxer = type { %struct.OutputFile, [32 x i8], ptr, ptr, i32, ptr, i32, ptr, ptr, i64, i64, i32, ptr, ptr }
%struct.OutputFile = type { ptr, i32, ptr, ptr, i32, i64, i64, i32 }
%struct.AVFormatContext = type { ptr, ptr, ptr, ptr, ptr, i32, i32, ptr, i32, ptr, i32, ptr, ptr, i64, i64, i64, i32, i32, i32, i64, i64, ptr, i32, i32, ptr, i32, i32, i32, i32, ptr, i64, i32, i32, %struct.AVIOInterruptCB, i32, i32, i32, i32, i64, i32, i32, i32, i32, i32, i32, i32, i32, i32, i32, i32, i32, i64, i32, i32, i32, i32, i32, ptr, ptr, ptr, ptr, i32, ptr, ptr, ptr, ptr, i32, ptr, ptr, i64, ptr, ptr, ptr, i64 }

@.str.7 = private unnamed_addr constant [59 x i8] c"Could not write header (incorrect codec parameters ?): %s\0A\00", align 1
@nb_output_dumped = external global i32, align 4

; Function Attrs: inlinehint nounwind uwtable
define internal ptr @av_make_error_string(ptr noundef %0, i64 noundef %1, i32 noundef %2) #4 {
  %4 = alloca ptr, align 8
  %5 = alloca i64, align 8
  %6 = alloca i32, align 4
  store ptr %0, ptr %4, align 8, !tbaa !87
  store i64 %1, ptr %5, align 8, !tbaa !101
  store i32 %2, ptr %6, align 4, !tbaa !12
  %7 = load i32, ptr %6, align 4, !tbaa !12
  %8 = load ptr, ptr %4, align 8, !tbaa !87
  %9 = load i64, ptr %5, align 8, !tbaa !101
  %10 = call i32 @av_strerror(i32 noundef %7, ptr noundef %8, i64 noundef %9)
  %11 = load ptr, ptr %4, align 8, !tbaa !87
  ret ptr %11
}

; Function Attrs: nounwind uwtable
define i32 @mux_check_init(ptr noundef %0) #0 {
  %2 = alloca i32, align 4
  %3 = alloca ptr, align 8
  %4 = alloca ptr, align 8
  %5 = alloca ptr, align 8
  %6 = alloca ptr, align 8
  %7 = alloca i32, align 4
  %8 = alloca [64 x i8], align 1
  %9 = alloca i32, align 4
  %10 = alloca i32, align 4
  %11 = alloca i32, align 4
  store ptr %0, ptr %3, align 8, !tbaa !4
  call void @llvm.lifetime.start.p0(i64 8, ptr %4) #10
  %12 = load ptr, ptr %3, align 8, !tbaa !4
  store ptr %12, ptr %4, align 8, !tbaa !8
  call void @llvm.lifetime.start.p0(i64 8, ptr %5) #10
  %13 = load ptr, ptr %4, align 8, !tbaa !8
  %14 = getelementptr inbounds nuw %struct.Muxer, ptr %13, i32 0, i32 0
  store ptr %14, ptr %5, align 8, !tbaa !10
  call void @llvm.lifetime.start.p0(i64 8, ptr %6) #10
  %15 = load ptr, ptr %4, align 8, !tbaa !8
  %16 = getelementptr inbounds nuw %struct.Muxer, ptr %15, i32 0, i32 2
  %17 = load ptr, ptr %16, align 8, !tbaa !59
  store ptr %17, ptr %6, align 8, !tbaa !95
  call void @llvm.lifetime.start.p0(i64 4, ptr %7) #10
  %18 = load ptr, ptr %6, align 8, !tbaa !95
  %19 = load ptr, ptr %4, align 8, !tbaa !8
  %20 = getelementptr inbounds nuw %struct.Muxer, ptr %19, i32 0, i32 7
  %21 = call i32 @avformat_write_header(ptr noundef %18, ptr noundef %20)
  store i32 %21, ptr %7, align 4, !tbaa !12
  %22 = load i32, ptr %7, align 4, !tbaa !12
  %23 = icmp slt i32 %22, 0
  br i1 %23, label %24, label %30

24:                                               ; preds = %1
  %25 = load ptr, ptr %4, align 8, !tbaa !8
  call void @llvm.memset.p0.i64(ptr align 1 %8, i8 0, i64 64, i1 false)
  %26 = getelementptr inbounds [64 x i8], ptr %8, i64 0, i64 0
  %27 = load i32, ptr %7, align 4, !tbaa !12
  %28 = call ptr @av_make_error_string(ptr noundef %26, i64 noundef 64, i32 noundef %27)
  call void (ptr, i32, ptr, ...) @av_log(ptr noundef %25, i32 noundef 16, ptr noundef @.str.7, ptr noundef %28)
  %29 = load i32, ptr %7, align 4, !tbaa !12
  store i32 %29, ptr %2, align 4
  store i32 1, ptr %9, align 4
  br label %42

30:                                               ; preds = %1
  %31 = load ptr, ptr %4, align 8, !tbaa !8
  %32 = getelementptr inbounds nuw %struct.Muxer, ptr %31, i32 0, i32 11
  store i32 1, ptr %32, align 8, !tbaa !99
  %33 = load ptr, ptr %6, align 8, !tbaa !95
  %34 = load ptr, ptr %5, align 8, !tbaa !10
  %35 = getelementptr inbounds nuw %struct.OutputFile, ptr %34, i32 0, i32 1
  %36 = load i32, ptr %35, align 8, !tbaa !28
  %37 = load ptr, ptr %6, align 8, !tbaa !95
  %38 = getelementptr inbounds nuw %struct.AVFormatContext, ptr %37, i32 0, i32 12
  %39 = load ptr, ptr %38, align 8, !tbaa !100
  call void @av_dump_format(ptr noundef %33, i32 noundef %36, ptr noundef %39, i32 noundef 1)
  store i32 1, ptr %10, align 4, !tbaa !12
  %40 = load i32, ptr %10, align 4
  %41 = atomicrmw add ptr @nb_output_dumped, i32 %40 seq_cst, align 4
  store i32 %41, ptr %11, align 4
  store i32 0, ptr %2, align 4
  store i32 1, ptr %9, align 4
  br label %42

42:                                               ; preds = %30, %24
  call void @llvm.lifetime.end.p0(i64 4, ptr %7) #10
  call void @llvm.lifetime.end.p0(i64 8, ptr %6) #10
  call void @llvm.lifetime.end.p0(i64 8, ptr %5) #10
  call void @llvm.lifetime.end.p0(i64 8, ptr %4) #10
  %43 = load i32, ptr %2, align 4
  ret i32 %43
}