; Function Attrs: nounwind uwtable
define range(i32 -2147483648, 1) i32 @mux_check_init(ptr noundef %0) local_unnamed_addr #0 {
  %2 = alloca [64 x i8], align 1
  %3 = getelementptr inbounds nuw i8, ptr %0, i64 96
  %4 = load ptr, ptr %3, align 8, !tbaa !25
  %5 = getelementptr inbounds nuw i8, ptr %0, i64 136
  %6 = tail call i32 @avformat_write_header(ptr noundef %4, ptr noundef nonnull %5) #11
  %7 = icmp slt i32 %6, 0
  br i1 %7, label %8, label %10

8:                                                ; preds = %1
  call void @llvm.memset.p0.i64(ptr noundef nonnull align 1 dereferenceable(64) %2, i8 0, i64 64, i1 false)
  %9 = call i32 @av_strerror(i32 noundef %6, ptr noundef nonnull %2, i64 noundef 64) #11
  call void (ptr, i32, ptr, ...) @av_log(ptr noundef nonnull %0, i32 noundef 16, ptr noundef nonnull @.str.7, ptr noundef nonnull %2) #11
  br label %17

10:                                               ; preds = %1
  %11 = getelementptr inbounds nuw i8, ptr %0, i64 168
  store i32 1, ptr %11, align 8, !tbaa !112
  %12 = getelementptr inbounds nuw i8, ptr %0, i64 8
  %13 = load i32, ptr %12, align 8, !tbaa !41
  %14 = getelementptr inbounds nuw i8, ptr %4, i64 88
  %15 = load ptr, ptr %14, align 8, !tbaa !113
  tail call void @av_dump_format(ptr noundef %4, i32 noundef %13, ptr noundef %15, i32 noundef 1) #11
  %16 = atomicrmw add ptr @nb_output_dumped, i32 1 seq_cst, align 4
  br label %17

17:                                               ; preds = %10, %8
  %.0 = phi i32 [ %6, %8 ], [ 0, %10 ]
  ret i32 %.0
}